; Function Attrs: mustprogress uwtable
define void @_ZN17EditMeasurePlugin14mouseMoveEventEP11QMouseEventR9MeshModelP6GLArea(ptr noundef nonnull align 8 dereferenceable(192) %0, ptr nocapture noundef readonly %1, ptr nocapture noundef nonnull readnone align 8 dereferenceable(1288) %2, ptr noundef %3) unnamed_addr #9 align 2 {
  %5 = getelementptr inbounds i8, ptr %1, i64 32
  %6 = load double, ptr %5, align 8
  %7 = fcmp ult double %6, 0.000000e+00
  br i1 %7, label %11, label %8

8:                                                ; preds = %4
  %9 = fadd double %6, 5.000000e-01
  %10 = fptosi double %9 to i32
  br label %_Z6qRoundd.exit.i.i

11:                                               ; preds = %4
  %12 = fadd double %6, -1.000000e+00
  %13 = fptosi double %12 to i32
  %14 = sitofp i32 %13 to double
  %15 = fsub double %6, %14
  %16 = fadd double %15, 5.000000e-01
  %17 = fptosi double %16 to i32
  %18 = add nsw i32 %17, %13
  br label %_Z6qRoundd.exit.i.i

_Z6qRoundd.exit.i.i:                              ; preds = %11, %8
  %19 = phi i32 [ %10, %8 ], [ %18, %11 ]
  %20 = getelementptr inbounds i8, ptr %1, i64 40
  %21 = load double, ptr %20, align 8
  %22 = fcmp ult double %21, 0.000000e+00
  br i1 %22, label %26, label %23

23:                                               ; preds = %_Z6qRoundd.exit.i.i
  %24 = fadd double %21, 5.000000e-01
  %25 = fptosi double %24 to i32
  br label %_ZNK11QMouseEvent3posEv.exit

26:                                               ; preds = %_Z6qRoundd.exit.i.i
  %27 = fadd double %21, -1.000000e+00
  %28 = fptosi double %27 to i32
  %29 = sitofp i32 %28 to double
  %30 = fsub double %21, %29
  %31 = fadd double %30, 5.000000e-01
  %32 = fptosi double %31 to i32
  %33 = add nsw i32 %32, %28
  br label %_ZNK11QMouseEvent3posEv.exit

_ZNK11QMouseEvent3posEv.exit:                     ; preds = %23, %26
  %34 = phi i32 [ %25, %23 ], [ %33, %26 ]
  %35 = getelementptr inbounds i8, ptr %0, i64 48
  %.sroa.2.0.insert.ext.i.i = zext i32 %34 to i64
  %.sroa.2.0.insert.shift.i.i = shl nuw i64 %.sroa.2.0.insert.ext.i.i, 32
  %.sroa.0.0.insert.ext.i.i = zext i32 %19 to i64
  %.sroa.0.0.insert.insert.i.i = or disjoint i64 %.sroa.2.0.insert.shift.i.i, %.sroa.0.0.insert.ext.i.i
  tail call void @_ZN3vcg10Rubberband4DragE6QPoint(ptr noundef nonnull align 8 dereferenceable(49) %35, i64 %.sroa.0.0.insert.insert.i.i)
  tail call void @_ZN7QWidget6updateEv(ptr noundef nonnull align 8 dereferenceable(48) %3)
  ret void
}